target datalayout = "e-m:e-p270:32:32-p271:32:32-p272:64:64-i64:64-i128:128-f80:128-n8:16:32:64-S128"
target triple = "x86_64-pc-linux-gnu"

%"struct.Gluco2::Solver::WatcherDeleted" = type { ptr }
%"struct.Gluco2::Solver::VarOrderLt" = type { ptr }
%"struct.Gluco2::Solver::JustOrderLt2" = type { ptr }
%"class.Gluco2::vec.0" = type { ptr, i32, i32 }
%"class.Gluco2::Solver" = type { ptr, i32, ptr, ptr, i32, i8, ptr, i64, %"class.Gluco2::vec", %"class.Gluco2::vec.0", i32, %"class.Gluco2::vec.1", %"class.Gluco2::vec.0", i32, i32, i32, double, double, double, double, i32, i32, i32, i32, i32, i32, double, double, double, double, i32, i32, i8, i8, double, ptr, i8, i64, i64, i64, i64, i64, i64, i64, i64, i64, i64, i64, i64, i64, i64, i64, i64, i64, i64, i64, i64, i64, i64, i32, i8, double, %"class.Gluco2::vec.2", double, %"class.Gluco2::OccLists", %"class.Gluco2::OccLists", %"class.Gluco2::vec.5", %"class.Gluco2::vec.5", %"class.Gluco2::vec.1", %"class.Gluco2::vec.4", %"class.Gluco2::vec.4", %"class.Gluco2::vec.0", %"class.Gluco2::vec", %"class.Gluco2::vec", %"class.Gluco2::vec.6", i32, i32, i64, %"class.Gluco2::vec.0", %"class.Gluco2::Heap", double, i8, %"class.Gluco2::vec.5", %"class.Gluco2::vec.0", %"class.Gluco2::ClauseAllocator", i32, %"class.Gluco2::bqueue", %"class.Gluco2::bqueue", float, i32, %"class.Gluco2::vec.4", %"class.Gluco2::vec.0", %"class.Gluco2::vec.0", %"class.Gluco2::vec.0", i32, double, double, i32, i64, i64, i8, i32, i32, double, double, i32, i32, %"class.Gluco2::vec", %"class.Gluco2::vec", i8, %"class.Gluco2::vec.7", %"class.Gluco2::vec.5", %"class.Gluco2::vec.0", %"class.Gluco2::vec.0", i32, i32, i32, i32, %"class.Gluco2::Heap2", %"class.Gluco2::vec", %"class.Gluco2::vec", i32, %"class.Gluco2::vec", %"class.Gluco2::vec.0" }
%"class.Gluco2::vec.2" = type { ptr, i32, i32 }
%"class.Gluco2::OccLists" = type { %"class.Gluco2::vec.3", %"class.Gluco2::vec.4", %"class.Gluco2::vec.0", %"struct.Gluco2::Solver::WatcherDeleted" }
%"class.Gluco2::vec.3" = type { ptr, i32, i32 }
%"class.Gluco2::vec.1" = type { ptr, i32, i32 }
%"class.Gluco2::vec.6" = type { ptr, i32, i32 }
%"class.Gluco2::Heap" = type { %"struct.Gluco2::Solver::VarOrderLt", %"class.Gluco2::vec", %"class.Gluco2::vec" }
%"class.Gluco2::ClauseAllocator" = type { %"class.Gluco2::RegionAllocator.base", i8, [3 x i8] }
%"class.Gluco2::RegionAllocator.base" = type <{ ptr, i32, i32, i32 }>
%"class.Gluco2::bqueue" = type { %"class.Gluco2::vec.5", i32, i32, i64, i32, i32, i8, double, double }
%"class.Gluco2::vec.4" = type { ptr, i32, i32 }
%"class.Gluco2::vec.7" = type { ptr, i32, i32 }
%"class.Gluco2::vec.5" = type { ptr, i32, i32 }
%"class.Gluco2::Heap2" = type { %"struct.Gluco2::Solver::JustOrderLt2", %"class.Gluco2::vec.8", %"class.Gluco2::vec" }
%"class.Gluco2::vec.8" = type { ptr, i32, i32 }
%"class.Gluco2::vec" = type { ptr, i32, i32 }
%"class.Gluco2::RegionAllocator" = type <{ ptr, i32, i32, i32, [4 x i8] }>

@.str.106 = private unnamed_addr constant [65 x i8] c"|  Garbage collection:   %12d bytes => %12d bytes             |\0A\00", align 1

; Function Attrs: mustprogress nounwind uwtable
define linkonce_odr void @_ZN6Gluco215RegionAllocatorIjE6moveToERS1_(ptr noundef nonnull align 8 dereferenceable(20) %0, ptr noundef nonnull align 8 dereferenceable(20) %1) #2 comdat align 2 {
  %3 = alloca ptr, align 8
  %4 = alloca ptr, align 8
  store ptr %0, ptr %3, align 8
  store ptr %1, ptr %4, align 8
  %5 = load ptr, ptr %3, align 8
  %6 = load ptr, ptr %4, align 8
  %7 = getelementptr inbounds %"class.Gluco2::RegionAllocator", ptr %6, i32 0, i32 0
  %8 = load ptr, ptr %7, align 8
  %9 = icmp ne ptr %8, null
  br i1 %9, label %10, label %14

10:                                               ; preds = %2
  %11 = load ptr, ptr %4, align 8
  %12 = getelementptr inbounds %"class.Gluco2::RegionAllocator", ptr %11, i32 0, i32 0
  %13 = load ptr, ptr %12, align 8
  call void @free(ptr noundef %13) #3
  br label %14

14:                                               ; preds = %10, %2
  %15 = getelementptr inbounds %"class.Gluco2::RegionAllocator", ptr %5, i32 0, i32 0
  %16 = load ptr, ptr %15, align 8
  %17 = load ptr, ptr %4, align 8
  %18 = getelementptr inbounds %"class.Gluco2::RegionAllocator", ptr %17, i32 0, i32 0
  store ptr %16, ptr %18, align 8
  %19 = getelementptr inbounds %"class.Gluco2::RegionAllocator", ptr %5, i32 0, i32 1
  %20 = load i32, ptr %19, align 8
  %21 = load ptr, ptr %4, align 8
  %22 = getelementptr inbounds %"class.Gluco2::RegionAllocator", ptr %21, i32 0, i32 1
  store i32 %20, ptr %22, align 8
  %23 = getelementptr inbounds %"class.Gluco2::RegionAllocator", ptr %5, i32 0, i32 2
  %24 = load i32, ptr %23, align 4
  %25 = load ptr, ptr %4, align 8
  %26 = getelementptr inbounds %"class.Gluco2::RegionAllocator", ptr %25, i32 0, i32 2
  store i32 %24, ptr %26, align 4
  %27 = getelementptr inbounds %"class.Gluco2::RegionAllocator", ptr %5, i32 0, i32 3
  %28 = load i32, ptr %27, align 8
  %29 = load ptr, ptr %4, align 8
  %30 = getelementptr inbounds %"class.Gluco2::RegionAllocator", ptr %29, i32 0, i32 3
  store i32 %28, ptr %30, align 8
  %31 = getelementptr inbounds %"class.Gluco2::RegionAllocator", ptr %5, i32 0, i32 0
  store ptr null, ptr %31, align 8
  %32 = getelementptr inbounds %"class.Gluco2::RegionAllocator", ptr %5, i32 0, i32 3
  store i32 0, ptr %32, align 8
  %33 = getelementptr inbounds %"class.Gluco2::RegionAllocator", ptr %5, i32 0, i32 2
  store i32 0, ptr %33, align 4
  %34 = getelementptr inbounds %"class.Gluco2::RegionAllocator", ptr %5, i32 0, i32 1
  store i32 0, ptr %34, align 8
  ret void
}

; Function Attrs: mustprogress nounwind uwtable
define linkonce_odr void @_ZN6Gluco215RegionAllocatorIjED2Ev(ptr noundef nonnull align 8 dereferenceable(20) %0) unnamed_addr #2 comdat align 2 {
  %2 = alloca ptr, align 8
  store ptr %0, ptr %2, align 8
  %3 = load ptr, ptr %2, align 8
  %4 = getelementptr inbounds %"class.Gluco2::RegionAllocator", ptr %3, i32 0, i32 0
  %5 = load ptr, ptr %4, align 8
  %6 = icmp ne ptr %5, null
  br i1 %6, label %7, label %10

7:                                                ; preds = %1
  %8 = getelementptr inbounds %"class.Gluco2::RegionAllocator", ptr %3, i32 0, i32 0
  %9 = load ptr, ptr %8, align 8
  call void @free(ptr noundef %9) #3
  br label %10

10:                                               ; preds = %7, %1
  ret void
}

; Function Attrs: mustprogress uwtable
define linkonce_odr void @_ZN6Gluco215RegionAllocatorIjEC2Ej(ptr noundef nonnull align 8 dereferenceable(20) %0, i32 noundef %1) unnamed_addr #1 comdat align 2 {
  %3 = alloca ptr, align 8
  %4 = alloca i32, align 4
  store ptr %0, ptr %3, align 8
  store i32 %1, ptr %4, align 4
  %5 = load ptr, ptr %3, align 8
  %6 = getelementptr inbounds %"class.Gluco2::RegionAllocator", ptr %5, i32 0, i32 0
  store ptr null, ptr %6, align 8
  %7 = getelementptr inbounds %"class.Gluco2::RegionAllocator", ptr %5, i32 0, i32 1
  store i32 0, ptr %7, align 8
  %8 = getelementptr inbounds %"class.Gluco2::RegionAllocator", ptr %5, i32 0, i32 2
  store i32 0, ptr %8, align 4
  %9 = getelementptr inbounds %"class.Gluco2::RegionAllocator", ptr %5, i32 0, i32 3
  store i32 0, ptr %9, align 8
  %10 = load i32, ptr %4, align 4
  call void @_ZN6Gluco215RegionAllocatorIjE8capacityEj(ptr noundef nonnull align 8 dereferenceable(20) %5, i32 noundef %10)
  ret void
}

; Function Attrs: mustprogress uwtable
define linkonce_odr void @_ZN6Gluco215ClauseAllocator6moveToERS0_(ptr noundef nonnull align 8 dereferenceable(21) %0, ptr noundef nonnull align 8 dereferenceable(21) %1) #1 comdat align 2 {
  %3 = alloca ptr, align 8
  %4 = alloca ptr, align 8
  store ptr %0, ptr %3, align 8
  store ptr %1, ptr %4, align 8
  %5 = load ptr, ptr %3, align 8
  %6 = getelementptr inbounds %"class.Gluco2::ClauseAllocator", ptr %5, i32 0, i32 1
  %7 = load i8, ptr %6, align 4
  %8 = trunc i8 %7 to i1
  %9 = load ptr, ptr %4, align 8
  %10 = getelementptr inbounds %"class.Gluco2::ClauseAllocator", ptr %9, i32 0, i32 1
  %11 = zext i1 %8 to i8
  store i8 %11, ptr %10, align 4
  %12 = load ptr, ptr %4, align 8
  call void @_ZN6Gluco215RegionAllocatorIjE6moveToERS1_(ptr noundef nonnull align 8 dereferenceable(20) %5, ptr noundef nonnull align 8 dereferenceable(20) %12)
  ret void
}

; Function Attrs: mustprogress nounwind uwtable
define linkonce_odr void @_ZN6Gluco215ClauseAllocatorD2Ev(ptr noundef nonnull align 8 dereferenceable(21) %0) unnamed_addr #2 comdat align 2 {
  %2 = alloca ptr, align 8
  store ptr %0, ptr %2, align 8
  %3 = load ptr, ptr %2, align 8
  call void @_ZN6Gluco215RegionAllocatorIjED2Ev(ptr noundef nonnull align 8 dereferenceable(20) %3) #3
  ret void
}

; Function Attrs: mustprogress uwtable
define linkonce_odr void @_ZN6Gluco215ClauseAllocatorC2Ej(ptr noundef nonnull align 8 dereferenceable(21) %0, i32 noundef %1) unnamed_addr #1 comdat align 2 {
  %3 = alloca ptr, align 8
  %4 = alloca i32, align 4
  store ptr %0, ptr %3, align 8
  store i32 %1, ptr %4, align 4
  %5 = load ptr, ptr %3, align 8
  %6 = load i32, ptr %4, align 4
  call void @_ZN6Gluco215RegionAllocatorIjEC2Ej(ptr noundef nonnull align 8 dereferenceable(20) %5, i32 noundef %6)
  %7 = getelementptr inbounds %"class.Gluco2::ClauseAllocator", ptr %5, i32 0, i32 1
  store i8 0, ptr %7, align 4
  ret void
}

; Function Attrs: mustprogress nounwind uwtable
define linkonce_odr noundef i32 @_ZNK6Gluco215RegionAllocatorIjE6wastedEv(ptr noundef nonnull align 8 dereferenceable(20) %0) #2 comdat align 2 {
  %2 = alloca ptr, align 8
  store ptr %0, ptr %2, align 8
  %3 = load ptr, ptr %2, align 8
  %4 = getelementptr inbounds %"class.Gluco2::RegionAllocator", ptr %3, i32 0, i32 3
  %5 = load i32, ptr %4, align 8
  ret i32 %5
}

; Function Attrs: mustprogress nounwind uwtable
define linkonce_odr noundef i32 @_ZNK6Gluco215RegionAllocatorIjE4sizeEv(ptr noundef nonnull align 8 dereferenceable(20) %0) #2 comdat align 2 {
  %2 = alloca ptr, align 8
  store ptr %0, ptr %2, align 8
  %3 = load ptr, ptr %2, align 8
  %4 = getelementptr inbounds %"class.Gluco2::RegionAllocator", ptr %3, i32 0, i32 1
  %5 = load i32, ptr %4, align 8
  ret i32 %5
}

; Function Attrs: mustprogress uwtable
define void @_ZN6Gluco26Solver14garbageCollectEv(ptr noundef nonnull align 8 dereferenceable(1416) %0) unnamed_addr #1 align 2 personality ptr @__gxx_personality_v0 {
  %2 = alloca ptr, align 8
  %3 = alloca %"class.Gluco2::ClauseAllocator", align 8
  %4 = alloca ptr, align 8
  %5 = alloca i32, align 4
  store ptr %0, ptr %2, align 8
  %6 = load ptr, ptr %2, align 8
  %7 = getelementptr inbounds %"class.Gluco2::Solver", ptr %6, i32 0, i32 84
  %8 = call noundef i32 @_ZNK6Gluco215RegionAllocatorIjE4sizeEv(ptr noundef nonnull align 8 dereferenceable(20) %7)
  %9 = getelementptr inbounds %"class.Gluco2::Solver", ptr %6, i32 0, i32 84
  %10 = call noundef i32 @_ZNK6Gluco215RegionAllocatorIjE6wastedEv(ptr noundef nonnull align 8 dereferenceable(20) %9)
  %11 = sub i32 %8, %10
  call void @_ZN6Gluco215ClauseAllocatorC2Ej(ptr noundef nonnull align 8 dereferenceable(21) %3, i32 noundef %11)
  invoke void @_ZN6Gluco26Solver8relocAllERNS_15ClauseAllocatorE(ptr noundef nonnull align 8 dereferenceable(1416) %6, ptr noundef nonnull align 8 dereferenceable(21) %3)
          to label %12 unwind label %26

12:                                               ; preds = %1
  %13 = getelementptr inbounds %"class.Gluco2::Solver", ptr %6, i32 0, i32 13
  %14 = load i32, ptr %13, align 8
  %15 = icmp sge i32 %14, 2
  br i1 %15, label %16, label %30

16:                                               ; preds = %12
  %17 = getelementptr inbounds %"class.Gluco2::Solver", ptr %6, i32 0, i32 84
  %18 = invoke noundef i32 @_ZNK6Gluco215RegionAllocatorIjE4sizeEv(ptr noundef nonnull align 8 dereferenceable(20) %17)
          to label %19 unwind label %26

19:                                               ; preds = %16
  %20 = mul i32 %18, 4
  %21 = invoke noundef i32 @_ZNK6Gluco215RegionAllocatorIjE4sizeEv(ptr noundef nonnull align 8 dereferenceable(20) %3)
          to label %22 unwind label %26

22:                                               ; preds = %19
  %23 = mul i32 %21, 4
  %24 = invoke i32 (ptr, ...) @printf(ptr noundef @.str.106, i32 noundef %20, i32 noundef %23)
          to label %25 unwind label %26

25:                                               ; preds = %22
  br label %30

26:                                               ; preds = %30, %22, %19, %16, %1
  %27 = landingpad { ptr, i32 }
          cleanup
  %28 = extractvalue { ptr, i32 } %27, 0
  store ptr %28, ptr %4, align 8
  %29 = extractvalue { ptr, i32 } %27, 1
  store i32 %29, ptr %5, align 4
  call void @_ZN6Gluco215ClauseAllocatorD2Ev(ptr noundef nonnull align 8 dereferenceable(21) %3) #3
  br label %33

30:                                               ; preds = %25, %12
  %31 = getelementptr inbounds %"class.Gluco2::Solver", ptr %6, i32 0, i32 84
  invoke void @_ZN6Gluco215ClauseAllocator6moveToERS0_(ptr noundef nonnull align 8 dereferenceable(21) %3, ptr noundef nonnull align 8 dereferenceable(21) %31)
          to label %32 unwind label %26

32:                                               ; preds = %30
  call void @_ZN6Gluco215ClauseAllocatorD2Ev(ptr noundef nonnull align 8 dereferenceable(21) %3) #3
  ret void

33:                                               ; preds = %26
  %34 = load ptr, ptr %4, align 8
  %35 = load i32, ptr %5, align 4
  %36 = insertvalue { ptr, i32 } poison, ptr %34, 0
  %37 = insertvalue { ptr, i32 } %36, i32 %35, 1
  resume { ptr, i32 } %37
}